target datalayout = "e-m:e-p270:32:32-p271:32:32-p272:64:64-i64:64-i128:128-f80:128-n8:16:32:64-S128"
target triple = "x86_64-pc-linux-gnu"

%"class.grpc_core::PolymorphicRefCount" = type { ptr }
%"class.grpc_core::RefCount" = type { %"struct.std::atomic" }
%"struct.std::atomic" = type { %"struct.std::__atomic_base" }
%"struct.std::__atomic_base" = type { i64 }
%class.grpc_ssl_server_credentials = type { %struct.grpc_server_credentials, %struct.grpc_ssl_server_config, %struct.grpc_ssl_server_certificate_config_fetcher }
%struct.grpc_server_credentials = type { %"class.grpc_core::RefCounted.13", %struct.grpc_auth_metadata_processor }
%"class.grpc_core::RefCounted.13" = type { %"class.grpc_core::PolymorphicRefCount", %"class.grpc_core::RefCount" }
%struct.grpc_auth_metadata_processor = type { ptr, ptr, ptr }
%struct.grpc_ssl_server_config = type <{ ptr, i64, ptr, i32, i32, i32, [4 x i8] }>
%struct.grpc_ssl_server_certificate_config_fetcher = type { ptr, ptr }

; Function Attrs: mustprogress uwtable
define void @_ZN27grpc_ssl_server_credentials12build_configEPKcP26grpc_ssl_pem_key_cert_pairm40grpc_ssl_client_certificate_request_type(ptr noundef nonnull align 8 dereferenceable(96) %0, ptr noundef %1, ptr noundef %2, i64 noundef %3, i32 noundef %4) #4 align 2 {
  %6 = alloca ptr, align 8
  %7 = alloca ptr, align 8
  %8 = alloca ptr, align 8
  %9 = alloca i64, align 8
  %10 = alloca i32, align 4
  store ptr %0, ptr %6, align 8, !tbaa !138
  store ptr %1, ptr %7, align 8, !tbaa !8
  store ptr %2, ptr %8, align 8, !tbaa !10
  store i64 %3, ptr %9, align 8, !tbaa !173
  store i32 %4, ptr %10, align 4, !tbaa !174
  %11 = load ptr, ptr %6, align 8
  %12 = load i32, ptr %10, align 4, !tbaa !174
  %13 = getelementptr inbounds nuw %class.grpc_ssl_server_credentials, ptr %11, i32 0, i32 1
  %14 = getelementptr inbounds nuw %struct.grpc_ssl_server_config, ptr %13, i32 0, i32 3
  store i32 %12, ptr %14, align 8, !tbaa !148
  %15 = load ptr, ptr %7, align 8, !tbaa !8
  %16 = call ptr @gpr_strdup(ptr noundef %15)
  %17 = getelementptr inbounds nuw %class.grpc_ssl_server_credentials, ptr %11, i32 0, i32 1
  %18 = getelementptr inbounds nuw %struct.grpc_ssl_server_config, ptr %17, i32 0, i32 2
  store ptr %16, ptr %18, align 8, !tbaa !175
  %19 = load ptr, ptr %8, align 8, !tbaa !10
  %20 = load i64, ptr %9, align 8, !tbaa !173
  %21 = call noundef ptr @_Z35grpc_convert_grpc_to_tsi_cert_pairsPK26grpc_ssl_pem_key_cert_pairm(ptr noundef %19, i64 noundef %20)
  %22 = getelementptr inbounds nuw %class.grpc_ssl_server_credentials, ptr %11, i32 0, i32 1
  %23 = getelementptr inbounds nuw %struct.grpc_ssl_server_config, ptr %22, i32 0, i32 0
  store ptr %21, ptr %23, align 8, !tbaa !176
  %24 = load i64, ptr %9, align 8, !tbaa !173
  %25 = getelementptr inbounds nuw %class.grpc_ssl_server_credentials, ptr %11, i32 0, i32 1
  %26 = getelementptr inbounds nuw %struct.grpc_ssl_server_config, ptr %25, i32 0, i32 1
  store i64 %24, ptr %26, align 8, !tbaa !177
  ret void
}