; Function Attrs: mustprogress uwtable
define void @_ZN27grpc_ssl_server_credentials12build_configEPKcP26grpc_ssl_pem_key_cert_pairm40grpc_ssl_client_certificate_request_type(ptr noundef nonnull writeonly align 8 captures(none) dereferenceable(96) initializes((40, 68)) %0, ptr noundef %1, ptr noundef %2, i64 noundef %3, i32 noundef %4) local_unnamed_addr #3 align 2 {
  %6 = getelementptr inbounds nuw i8, ptr %0, i64 40
  %7 = getelementptr inbounds nuw i8, ptr %0, i64 64
  store i32 %4, ptr %7, align 8, !tbaa !117
  %8 = tail call ptr @gpr_strdup(ptr noundef %1)
  %9 = getelementptr inbounds nuw i8, ptr %0, i64 56
  store ptr %8, ptr %9, align 8, !tbaa !128
  %10 = tail call noundef ptr @_Z35grpc_convert_grpc_to_tsi_cert_pairsPK26grpc_ssl_pem_key_cert_pairm(ptr noundef %2, i64 noundef %3)
  store ptr %10, ptr %6, align 8, !tbaa !129
  %11 = getelementptr inbounds nuw i8, ptr %0, i64 48
  store i64 %3, ptr %11, align 8, !tbaa !130
  ret void
}